; Function Attrs: mustprogress nofree norecurse nosync nounwind willreturn memory(read, inaccessiblemem: none) uwtable
define hidden noundef zeroext i1 @_ZNK17arith_decl_plugin15is_unique_valueEP3app(ptr noundef nonnull readonly align 8 captures(none) dereferenceable(441) %0, ptr noundef readonly captures(none) %1) unnamed_addr #14 align 2 {
  %3 = getelementptr inbounds nuw i8, ptr %0, i64 16
  %4 = load i32, ptr %3, align 8, !tbaa !53
  %5 = getelementptr inbounds nuw i8, ptr %1, i64 4
  %6 = load i32, ptr %5, align 4
  %7 = and i32 %6, 65535
  %8 = icmp eq i32 %7, 0
  br i1 %8, label %9, label %_Z9is_app_ofPK4exprii.exit7

9:                                                ; preds = %2
  %10 = getelementptr inbounds nuw i8, ptr %1, i64 16
  %11 = load ptr, ptr %10, align 8, !tbaa !193
  %12 = getelementptr inbounds nuw i8, ptr %11, i64 24
  %13 = load ptr, ptr %12, align 8, !tbaa !212
  %.not.i.i.i = icmp eq ptr %13, null
  br i1 %.not.i.i.i, label %_Z9is_app_ofPK4exprii.exit7, label %_Z9is_app_ofPK4exprii.exit

_Z9is_app_ofPK4exprii.exit:                       ; preds = %9
  %14 = load i32, ptr %13, align 8, !tbaa !54
  %15 = icmp eq i32 %14, %4
  %16 = getelementptr inbounds nuw i8, ptr %13, i64 4
  %17 = load i32, ptr %16, align 4
  %18 = icmp eq i32 %17, 0
  %19 = select i1 %15, i1 %18, i1 false
  br i1 %19, label %_Z9is_app_ofPK4exprii.exit7, label %_Z9is_app_ofPK4exprii.exit5

_Z9is_app_ofPK4exprii.exit5:                      ; preds = %_Z9is_app_ofPK4exprii.exit
  %20 = load i32, ptr %13, align 8, !tbaa !54
  %21 = icmp eq i32 %20, %4
  %22 = getelementptr inbounds nuw i8, ptr %13, i64 4
  %23 = load i32, ptr %22, align 4
  %24 = icmp eq i32 %23, 40
  %25 = select i1 %21, i1 %24, i1 false
  br i1 %25, label %_Z9is_app_ofPK4exprii.exit7, label %.thread10

.thread10:                                        ; preds = %_Z9is_app_ofPK4exprii.exit5
  %26 = load i32, ptr %13, align 8, !tbaa !54
  %27 = icmp eq i32 %26, %4
  %28 = getelementptr inbounds nuw i8, ptr %13, i64 4
  %29 = load i32, ptr %28, align 4
  %30 = icmp eq i32 %29, 41
  %31 = select i1 %27, i1 %30, i1 false
  br label %_Z9is_app_ofPK4exprii.exit7

_Z9is_app_ofPK4exprii.exit7:                      ; preds = %9, %.thread10, %2, %_Z9is_app_ofPK4exprii.exit5, %_Z9is_app_ofPK4exprii.exit
  %32 = phi i1 [ true, %_Z9is_app_ofPK4exprii.exit5 ], [ true, %_Z9is_app_ofPK4exprii.exit ], [ %31, %.thread10 ], [ false, %2 ], [ false, %9 ]
  ret i1 %32
}